Certificate:
    Data:
        Version: 3 (0x2)
        Serial Number: 1 (0x1)
        Signature Algorithm: sha256WithRSAEncryption
        Issuer: C=FR, ST=Radius, L=Somewhere, O=Example Inc./emailAddress=admin@example.org, CN=Example Certificate Authority
        Validity
            Not Before: Nov 14 17:47:01 2019 GMT
            Not After : Jan 13 17:47:01 2020 GMT
        Subject: C=FR, ST=Radius, O=Example Inc., CN=Example Server Certificate/emailAddress=admin@example.org
        Subject Public Key Info:
            Public Key Algorithm: rsaEncryption
                RSA Public-Key: (2048 bit)
                Modulus:
                    00:bf:0b:d2:30:f6:7a:65:04:fe:54:e7:3c:f5:b7:
                    e6:c5:c4:dc:a0:e8:32:ea:4b:bd:16:cf:a4:5b:dc:
                    90:08:88:25:e8:0b:37:8c:ae:38:a3:e0:e7:24:cd:
                    0b:56:2a:5e:ff:e8:5b:c3:75:ad:1f:3a:33:f3:39:
                    fb:b2:e2:f6:74:63:92:d7:3e:02:68:e6:a1:38:db:
                    08:f8:28:a9:a1:93:f7:69:d4:59:55:2a:25:b9:d0:
                    c7:40:de:90:a9:67:3c:80:d0:09:f9:c8:f1:33:fe:
                    ad:4a:7c:73:80:02:6f:2e:78:30:d0:a0:5b:02:05:
                    7e:52:d7:37:16:d1:6a:a3:de:46:d7:4d:1e:9d:ce:
                    de:96:12:31:67:0b:80:68:f6:a7:34:f6:6f:6b:50:
                    7f:ac:42:54:f3:e1:31:69:62:e1:47:c0:78:9f:fe:
                    d6:bf:43:b5:41:c9:be:56:c1:e7:65:c4:85:be:77:
                    e0:3a:6f:83:a1:a7:76:e3:d0:ba:c7:7b:0b:33:ac:
                    f5:d5:6b:98:bb:76:a4:fc:10:09:ff:21:91:44:06:
                    6a:a6:a9:27:4c:1f:a3:3f:81:ad:0f:e6:b3:32:39:
                    20:d6:ed:fa:ca:1b:66:71:3c:75:d1:bc:70:d5:3b:
                    85:6b:69:c5:10:e9:6c:d1:8d:33:bb:95:0e:61:81:
                    07:8f
                Exponent: 65537 (0x10001)
        X509v3 extensions:
            X509v3 Extended Key Usage: 
                TLS Web Server Authentication
            X509v3 CRL Distribution Points: 

                Full Name:
                  URI:http://www.example.com/example_ca.crl

    Signature Algorithm: sha256WithRSAEncryption
         81:d5:c0:46:fc:be:b5:dc:17:82:e2:06:be:2e:13:1b:0e:96:
         55:ad:64:d7:57:18:77:ad:68:d3:aa:c4:4a:68:cf:74:86:11:
         92:ea:97:d2:12:5d:35:66:4e:c7:24:40:45:e6:3d:c8:fb:b1:
         92:6a:a2:92:7a:78:2b:29:a4:19:d8:31:aa:7d:66:58:1f:b8:
         23:74:40:b4:94:e8:35:d0:a6:c9:e8:77:ff:51:da:a3:b1:f8:
         63:02:da:73:55:6c:f2:b4:e0:13:23:66:20:92:83:54:a9:a8:
         21:1a:2d:86:c3:02:f7:c6:6b:7b:e5:6f:c5:90:1d:e1:03:4a:
         82:bd:54:2c:a2:da:09:81:d1:3f:b9:ec:4d:d8:3e:4d:4b:3d:
         39:95:e4:5c:b7:04:0e:6a:4f:4f:d3:49:18:52:94:42:79:3a:
         f7:ee:86:1e:64:a7:2d:e4:5a:43:11:35:96:9a:0d:2f:fe:0d:
         91:5a:f5:6a:f7:2a:ef:92:81:85:49:4f:17:bf:be:9a:55:c6:
         c5:7d:84:18:f0:83:9a:16:de:b7:a6:4d:81:ca:b6:9f:51:54:
         37:50:13:34:15:3b:82:d0:00:45:a1:c3:3e:0d:28:8c:14:cb:
         8a:2d:33:f4:25:28:11:42:13:c0:64:5e:53:cb:5a:07:2d:6d:
         ab:54:3d:a1
-----BEGIN CERTIFICATE-----
MIID2jCCAsKgAwIBAgIBATANBgkqhkiG9w0BAQsFADCBkzELMAkGA1UEBhMCRlIx
DzANBgNVBAgMBlJhZGl1czESMBAGA1UEBwwJU29tZXdoZXJlMRUwEwYDVQQKDAxF
eGFtcGxlIEluYy4xIDAeBgkqhkiG9w0BCQEWEWFkbWluQGV4YW1wbGUub3JnMSYw
JAYDVQQDDB1FeGFtcGxlIENlcnRpZmljYXRlIEF1dGhvcml0eTAeFw0xOTExMTQx
NzQ3MDFaFw0yMDAxMTMxNzQ3MDFaMHwxCzAJBgNVBAYTAkZSMQ8wDQYDVQQIDAZS
YWRpdXMxFTATBgNVBAoMDEV4YW1wbGUgSW5jLjEjMCEGA1UEAwwaRXhhbXBsZSBT
ZXJ2ZXIgQ2VydGlmaWNhdGUxIDAeBgkqhkiG9w0BCQEWEWFkbWluQGV4YW1wbGUu
b3JnMIIBIjANBgkqhkiG9w0BAQEFAAOCAQ8AMIIBCgKCAQEAvwvSMPZ6ZQT+VOc8
9bfmxcTcoOgy6ku9Fs+kW9yQCIgl6As3jK44o+DnJM0LVipe/+hbw3WtHzoz8zn7
suL2dGOS1z4CaOahONsI+CipoZP3adRZVSoludDHQN6QqWc8gNAJ+cjxM/6tSnxz
gAJvLngw0KBbAgV+Utc3FtFqo95G100enc7elhIxZwuAaPanNPZva1B/rEJU8+Ex
aWLhR8B4n/7Wv0O1Qcm+VsHnZcSFvnfgOm+Doad249C6x3sLM6z11WuYu3ak/BAJ
/yGRRAZqpqknTB+jP4GtD+azMjkg1u36yhtmcTx10bxw1TuFa2nFEOls0Y0zu5UO
YYEHjwIDAQABo08wTTATBgNVHSUEDDAKBggrBgEFBQcDATA2BgNVHR8ELzAtMCug
KaAnhiVodHRwOi8vd3d3LmV4YW1wbGUuY29tL2V4YW1wbGVfY2EuY3JsMA0GCSqG
SIb3DQEBCwUAA4IBAQCB1cBG/L613BeC4ga+LhMbDpZVrWTXVxh3rWjTqsRKaM90
hhGS6pfSEl01Zk7HJEBF5j3I+7GSaqKSengrKaQZ2DGqfWZYH7gjdEC0lOg10KbJ
6Hf/UdqjsfhjAtpzVWzytOATI2YgkoNUqaghGi2GwwL3xmt75W/FkB3hA0qCvVQs
otoJgdE/uexN2D5NSz05leRctwQOak9P00kYUpRCeTr37oYeZKct5FpDETWWmg0v
/g2RWvVq9yrvkoGFSU8Xv76aVcbFfYQY8IOaFt63pk2ByrafUVQ3UBM0FTuC0ABF
ocM+DSiMFMuKLTP0JSgRQhPAZF5Ty1oHLW2rVD2h
-----END CERTIFICATE-----
